; Function Attrs: mustprogress nounwind uwtable
define dso_local void @_ZN23cmGlobalCommonGeneratorD0Ev(ptr noundef nonnull align 8 dereferenceable(1880) %0) unnamed_addr #4 align 2 personality ptr @__gxx_personality_v0 {
  store ptr getelementptr inbounds ({ [71 x ptr] }, ptr @_ZTV23cmGlobalCommonGenerator, i64 0, i32 0, i64 2), ptr %0, align 8
  %2 = getelementptr inbounds i8, ptr %0, i64 1832
  %3 = getelementptr inbounds i8, ptr %0, i64 1848
  %4 = load ptr, ptr %3, align 8
  invoke void @_ZNSt8_Rb_treeINSt7__cxx1112basic_stringIcSt11char_traitsIcESaIcEEES5_St9_IdentityIS5_ESt4lessIS5_ESaIS5_EE8_M_eraseEPSt13_Rb_tree_nodeIS5_E(ptr noundef nonnull align 8 dereferenceable(48) %2, ptr noundef %4)
          to label %_ZNSt3setINSt7__cxx1112basic_stringIcSt11char_traitsIcESaIcEEESt4lessIS5_ESaIS5_EED2Ev.exit.i unwind label %5

5:                                                ; preds = %1
  %6 = landingpad { ptr, i32 }
          catch ptr null
  %7 = extractvalue { ptr, i32 } %6, 0
  tail call void @__clang_call_terminate(ptr %7) #18
  unreachable

_ZNSt3setINSt7__cxx1112basic_stringIcSt11char_traitsIcESaIcEEESt4lessIS5_ESaIS5_EED2Ev.exit.i: ; preds = %1
  %8 = getelementptr inbounds i8, ptr %0, i64 1784
  %9 = getelementptr inbounds i8, ptr %0, i64 1800
  %10 = load ptr, ptr %9, align 8
  invoke void @_ZNSt8_Rb_treeINSt7__cxx1112basic_stringIcSt11char_traitsIcESaIcEEES5_St9_IdentityIS5_ESt4lessIS5_ESaIS5_EE8_M_eraseEPSt13_Rb_tree_nodeIS5_E(ptr noundef nonnull align 8 dereferenceable(48) %8, ptr noundef %10)
          to label %_ZN23cmGlobalCommonGeneratorD2Ev.exit unwind label %11

11:                                               ; preds = %_ZNSt3setINSt7__cxx1112basic_stringIcSt11char_traitsIcESaIcEEESt4lessIS5_ESaIS5_EED2Ev.exit.i
  %12 = landingpad { ptr, i32 }
          catch ptr null
  %13 = extractvalue { ptr, i32 } %12, 0
  tail call void @__clang_call_terminate(ptr %13) #18
  unreachable

_ZN23cmGlobalCommonGeneratorD2Ev.exit:            ; preds = %_ZNSt3setINSt7__cxx1112basic_stringIcSt11char_traitsIcESaIcEEESt4lessIS5_ESaIS5_EED2Ev.exit.i
  tail call void @_ZN17cmGlobalGeneratorD2Ev(ptr noundef nonnull align 8 dereferenceable(1778) %0) #19
  tail call void @_ZdlPv(ptr noundef nonnull %0) #20
  ret void
}